target datalayout = "e-m:e-p270:32:32-p271:32:32-p272:64:64-i64:64-i128:128-f80:128-n8:16:32:64-S128"
target triple = "x86_64-pc-linux-gnu"

%struct.SDL_GUID = type { [16 x i8] }
%struct.SDL_Gamepad = type { ptr, i32, ptr, i32, i32, ptr, i32, ptr, ptr, ptr, i64, ptr }
%struct.SDL_Joystick = type { i32, ptr, ptr, ptr, %struct.SDL_GUID, i16, i64, i8, i8, i32, ptr, i32, ptr, i32, ptr, i32, ptr, i32, ptr, i32, i32, ptr, i16, i16, i64, i64, i16, i16, i64, i64, i8, i8, i8, i64, i8, i32, i32, i32, i8, i32, ptr, i32, ptr, [3 x [3 x float]], i64, ptr, ptr, i32, i32, ptr }
%struct.SDL_JoystickSensorInfo = type { i32, i8, float, [3 x float] }

@.str.4 = private unnamed_addr constant [26 x i8] c"Parameter '%s' is invalid\00", align 1
@.str.5 = private unnamed_addr constant [8 x i8] c"gamepad\00", align 1

; Function Attrs: nounwind uwtable
define hidden ptr @SDL_GetGamepadJoystick_REAL(ptr noundef %0) #0 {
  %2 = alloca ptr, align 8
  %3 = alloca ptr, align 8
  %4 = alloca ptr, align 8
  %5 = alloca i32, align 4
  store ptr %0, ptr %3, align 8
  call void @llvm.lifetime.start.p0(i64 8, ptr %4) #8
  call void @SDL_LockJoysticks_REAL()
  %6 = load ptr, ptr %3, align 8
  %7 = call zeroext i1 @SDL_ObjectValid(ptr noundef %6, i32 noundef 5)
  br i1 %7, label %8, label %13

8:                                                ; preds = %1
  %9 = load ptr, ptr %3, align 8
  %10 = getelementptr inbounds nuw %struct.SDL_Gamepad, ptr %9, i32 0, i32 0
  %11 = load ptr, ptr %10, align 8
  %12 = call zeroext i1 @SDL_IsJoystickValid(ptr noundef %11)
  br i1 %12, label %15, label %13

13:                                               ; preds = %8, %1
  %14 = call zeroext i1 (ptr, ...) @SDL_SetError_REAL(ptr noundef @.str.4, ptr noundef @.str.5)
  call void @SDL_UnlockJoysticks_REAL()
  store ptr null, ptr %2, align 8
  store i32 1, ptr %5, align 4
  br label %20

15:                                               ; preds = %8
  %16 = load ptr, ptr %3, align 8
  %17 = getelementptr inbounds nuw %struct.SDL_Gamepad, ptr %16, i32 0, i32 0
  %18 = load ptr, ptr %17, align 8
  store ptr %18, ptr %4, align 8
  call void @SDL_UnlockJoysticks_REAL()
  %19 = load ptr, ptr %4, align 8
  store ptr %19, ptr %2, align 8
  store i32 1, ptr %5, align 4
  br label %20

20:                                               ; preds = %15, %13
  call void @llvm.lifetime.end.p0(i64 8, ptr %4) #8
  %21 = load ptr, ptr %2, align 8
  ret ptr %21
}

; Function Attrs: nounwind uwtable
define hidden zeroext i1 @SDL_GamepadHasSensor_REAL(ptr noundef %0, i32 noundef %1) #0 {
  %3 = alloca ptr, align 8
  %4 = alloca i32, align 4
  %5 = alloca i8, align 1
  %6 = alloca ptr, align 8
  %7 = alloca i32, align 4
  store ptr %0, ptr %3, align 8
  store i32 %1, ptr %4, align 4
  call void @llvm.lifetime.start.p0(i64 1, ptr %5) #8
  store i8 0, ptr %5, align 1
  call void @SDL_LockJoysticks_REAL()
  call void @llvm.lifetime.start.p0(i64 8, ptr %6) #8
  %8 = load ptr, ptr %3, align 8
  %9 = call ptr @SDL_GetGamepadJoystick_REAL(ptr noundef %8)
  store ptr %9, ptr %6, align 8
  %10 = load ptr, ptr %6, align 8
  %11 = icmp ne ptr %10, null
  br i1 %11, label %12, label %36

12:                                               ; preds = %2
  call void @llvm.lifetime.start.p0(i64 4, ptr %7) #8
  store i32 0, ptr %7, align 4
  br label %13

13:                                               ; preds = %32, %12
  %14 = load i32, ptr %7, align 4
  %15 = load ptr, ptr %6, align 8
  %16 = getelementptr inbounds nuw %struct.SDL_Joystick, ptr %15, i32 0, i32 19
  %17 = load i32, ptr %16, align 8
  %18 = icmp slt i32 %14, %17
  br i1 %18, label %19, label %35

19:                                               ; preds = %13
  %20 = load ptr, ptr %6, align 8
  %21 = getelementptr inbounds nuw %struct.SDL_Joystick, ptr %20, i32 0, i32 21
  %22 = load ptr, ptr %21, align 8
  %23 = load i32, ptr %7, align 4
  %24 = sext i32 %23 to i64
  %25 = getelementptr inbounds %struct.SDL_JoystickSensorInfo, ptr %22, i64 %24
  %26 = getelementptr inbounds nuw %struct.SDL_JoystickSensorInfo, ptr %25, i32 0, i32 0
  %27 = load i32, ptr %26, align 4
  %28 = load i32, ptr %4, align 4
  %29 = icmp eq i32 %27, %28
  br i1 %29, label %30, label %31

30:                                               ; preds = %19
  store i8 1, ptr %5, align 1
  br label %35

31:                                               ; preds = %19
  br label %32

32:                                               ; preds = %31
  %33 = load i32, ptr %7, align 4
  %34 = add nsw i32 %33, 1
  store i32 %34, ptr %7, align 4
  br label %13, !llvm.loop !41

35:                                               ; preds = %30, %13
  call void @llvm.lifetime.end.p0(i64 4, ptr %7) #8
  br label %36

36:                                               ; preds = %35, %2
  call void @llvm.lifetime.end.p0(i64 8, ptr %6) #8
  call void @SDL_UnlockJoysticks_REAL()
  %37 = load i8, ptr %5, align 1, !range !3, !noundef !4
  %38 = trunc i8 %37 to i1
  call void @llvm.lifetime.end.p0(i64 1, ptr %5) #8
  ret i1 %38
}