; Function Attrs: nounwind uwtable
define hidden noundef zeroext i1 @SDL_GamepadHasSensor_REAL(ptr noundef %0, i32 noundef %1) local_unnamed_addr #0 {
  tail call void @SDL_LockJoysticks_REAL() #10
  tail call void @SDL_LockJoysticks_REAL() #10
  %3 = tail call zeroext i1 @SDL_ObjectValid(ptr noundef %0, i32 noundef 5) #10
  br i1 %3, label %4, label %SDL_GetGamepadJoystick_REAL.exit.thread

4:                                                ; preds = %2
  %5 = load ptr, ptr %0, align 8
  %6 = tail call zeroext i1 @SDL_IsJoystickValid(ptr noundef %5) #10
  br i1 %6, label %SDL_GetGamepadJoystick_REAL.exit, label %SDL_GetGamepadJoystick_REAL.exit.thread

SDL_GetGamepadJoystick_REAL.exit.thread:          ; preds = %2, %4
  %7 = tail call zeroext i1 (ptr, ...) @SDL_SetError_REAL(ptr noundef nonnull @.str.4, ptr noundef nonnull @.str.5) #10
  tail call void @SDL_UnlockJoysticks_REAL() #10
  br label %.loopexit

SDL_GetGamepadJoystick_REAL.exit:                 ; preds = %4
  %8 = load ptr, ptr %0, align 8
  tail call void @SDL_UnlockJoysticks_REAL() #10
  %.not = icmp eq ptr %8, null
  br i1 %.not, label %.loopexit, label %.preheader

.preheader:                                       ; preds = %SDL_GetGamepadJoystick_REAL.exit
  %9 = getelementptr inbounds nuw i8, ptr %8, i64 144
  %10 = load i32, ptr %9, align 8
  %11 = icmp sgt i32 %10, 0
  br i1 %11, label %.lr.ph, label %.loopexit

.lr.ph:                                           ; preds = %.preheader
  %12 = getelementptr inbounds nuw i8, ptr %8, i64 152
  %13 = load ptr, ptr %12, align 8
  %wide.trip.count = zext nneg i32 %10 to i64
  br label %14

14:                                               ; preds = %14, %.lr.ph
  %indvars.iv = phi i64 [ 0, %.lr.ph ], [ %indvars.iv.next, %14 ]
  %15 = getelementptr inbounds nuw %struct.SDL_JoystickSensorInfo, ptr %13, i64 %indvars.iv
  %16 = load i32, ptr %15, align 4
  %17 = icmp eq i32 %16, %1
  %indvars.iv.next = add nuw nsw i64 %indvars.iv, 1
  %exitcond.not = icmp eq i64 %indvars.iv.next, %wide.trip.count
  %or.cond = select i1 %17, i1 true, i1 %exitcond.not
  br i1 %or.cond, label %.loopexit, label %14, !llvm.loop !51

.loopexit:                                        ; preds = %14, %.preheader, %SDL_GetGamepadJoystick_REAL.exit.thread, %SDL_GetGamepadJoystick_REAL.exit
  %.08 = phi i1 [ false, %SDL_GetGamepadJoystick_REAL.exit ], [ false, %SDL_GetGamepadJoystick_REAL.exit.thread ], [ false, %.preheader ], [ %17, %14 ]
  tail call void @SDL_UnlockJoysticks_REAL() #10
  ret i1 %.08
}